; Function Attrs: nounwind sspstrong uwtable
define internal i64 @proc_getgroups(i64 %0) #1 {
  %2 = alloca i64, align 8
  call void @llvm.lifetime.start.p0(i64 8, ptr nonnull %2) #27
  %3 = tail call i32 @getgroups(i32 noundef 0, ptr noundef null) #27
  %4 = icmp eq i32 %3, -1
  br i1 %4, label %5, label %8

5:                                                ; preds = %1
  %6 = tail call ptr @rb_errno_ptr() #27
  %7 = load i32, ptr %6, align 4, !tbaa !60
  tail call void @rb_syserr_fail(i32 noundef %7, ptr noundef null) #29
  unreachable

8:                                                ; preds = %1
  %9 = sext i32 %3 to i64
  %10 = icmp ult i32 %3, 256
  br i1 %10, label %11, label %14

11:                                               ; preds = %8
  store i64 0, ptr %2, align 8, !tbaa !43
  %12 = shl nuw nsw i64 %9, 2
  %13 = alloca i8, i64 %12, align 16
  br label %21

14:                                               ; preds = %8
  %15 = icmp slt i32 %3, 0
  br i1 %15, label %16, label %rb_alloc_tmp_buffer2.exit, !prof !100

16:                                               ; preds = %14
  tail call void @ruby_malloc_size_overflow(i64 noundef range(i64 -2147483648, 2147483648) %9, i64 noundef range(i64 -2147483648, 2147483648) 4) #29
  unreachable

rb_alloc_tmp_buffer2.exit:                        ; preds = %14
  %17 = shl nuw nsw i64 %9, 2
  %18 = add nuw nsw i64 %17, 7
  %19 = lshr i64 %18, 3
  %20 = call noalias nonnull ptr @rb_alloc_tmp_buffer_with_count(ptr noundef nonnull %2, i64 noundef %17, i64 noundef %19) #30
  br label %21

21:                                               ; preds = %rb_alloc_tmp_buffer2.exit, %11
  %22 = phi ptr [ %13, %11 ], [ %20, %rb_alloc_tmp_buffer2.exit ]
  %23 = call i32 @getgroups(i32 noundef %3, ptr noundef nonnull %22) #27
  %24 = icmp eq i32 %23, -1
  br i1 %24, label %25, label %28

25:                                               ; preds = %21
  %26 = call ptr @rb_errno_ptr() #27
  %27 = load i32, ptr %26, align 4, !tbaa !60
  call void @rb_syserr_fail(i32 noundef %27, ptr noundef null) #29
  unreachable

28:                                               ; preds = %21
  %29 = call i64 @rb_ary_new() #27
  %30 = icmp sgt i32 %23, 0
  br i1 %30, label %.lr.ph.preheader, label %._crit_edge

.lr.ph.preheader:                                 ; preds = %28
  %wide.trip.count = zext nneg i32 %23 to i64
  br label %.lr.ph

.lr.ph:                                           ; preds = %.lr.ph.preheader, %.lr.ph
  %indvars.iv = phi i64 [ 0, %.lr.ph.preheader ], [ %indvars.iv.next, %.lr.ph ]
  %31 = getelementptr i32, ptr %22, i64 %indvars.iv
  %32 = load i32, ptr %31, align 4, !tbaa !60
  %33 = zext i32 %32 to i64
  %34 = shl nuw nsw i64 %33, 1
  %35 = or disjoint i64 %34, 1
  %36 = call i64 @rb_ary_push(i64 noundef %29, i64 noundef %35) #27
  %indvars.iv.next = add nuw nsw i64 %indvars.iv, 1
  %exitcond.not = icmp eq i64 %indvars.iv.next, %wide.trip.count
  br i1 %exitcond.not, label %._crit_edge, label %.lr.ph, !llvm.loop !256

._crit_edge:                                      ; preds = %.lr.ph, %28
  call void @rb_free_tmp_buffer(ptr noundef nonnull %2) #27
  call void @llvm.lifetime.end.p0(i64 8, ptr nonnull %2) #27
  ret i64 %29
}